Certificate:
    Data:
        Version: 3 (0x2)
        Serial Number: 8193 (0x2001)
        Signature Algorithm: sha256WithRSAEncryption
        Issuer: CN=MyIssuingCA
        Validity
            Not Before: Nov 24 14:30:30 2025 GMT
            Not After : Feb 27 14:30:30 2028 GMT
        Subject: CN=client1
        Subject Public Key Info:
            Public Key Algorithm: rsaEncryption
                Public-Key: (2048 bit)
                Modulus:
                    00:9c:d8:cd:4d:7c:6f:ba:ee:01:7e:d0:84:94:3e:
                    33:4c:88:e0:7a:e8:96:07:ff:65:ce:da:0c:d7:41:
                    82:12:21:cb:66:bd:b5:ca:85:7d:6d:e4:cc:10:e6:
                    c6:81:23:5f:02:a2:61:6c:8d:4b:68:a3:9a:46:a9:
                    0b:89:47:80:ce:90:10:ed:bb:4f:fc:82:c0:df:65:
                    8c:81:7f:84:df:cb:9b:be:e9:98:e1:a1:f2:73:4d:
                    5b:aa:9b:e8:33:29:aa:a0:3f:0c:a6:bc:01:57:9e:
                    b2:40:9b:8e:bb:25:d6:6f:44:43:c4:5e:18:9e:13:
                    39:bd:cb:dc:25:df:bb:e3:3c:fa:cf:e4:4d:88:41:
                    19:87:b5:ca:15:16:f7:72:dd:38:c6:28:51:6c:f6:
                    36:10:34:ca:27:50:06:fa:f6:52:90:1a:0c:37:6e:
                    57:12:f4:9b:e8:96:cf:9a:8e:e6:b5:07:fc:dc:91:
                    da:dc:c4:4d:90:17:b4:38:58:a2:59:4d:51:10:41:
                    1d:a1:b9:53:87:60:48:04:8b:d1:0c:6b:62:8f:ae:
                    81:ad:c0:86:c3:82:bb:ad:ed:7d:8e:de:80:7b:45:
                    b4:86:c1:da:8b:08:48:94:80:73:2d:66:5e:a8:89:
                    1d:d9:4a:e1:dc:38:4d:ec:3a:41:1a:83:51:49:57:
                    81:c1
                Exponent: 65537 (0x10001)
        X509v3 extensions:
            X509v3 Basic Constraints: 
                CA:FALSE
            X509v3 Key Usage: 
                Digital Signature, Key Encipherment
            X509v3 Extended Key Usage: 
                TLS Web Server Authentication, TLS Web Client Authentication
            X509v3 Subject Key Identifier: 
                82:7B:15:60:71:FD:E2:C8:3C:01:CD:DC:3C:E6:86:FB:03:3D:71:D3
            X509v3 Authority Key Identifier: 
                7E:68:7E:C0:3C:F0:E7:07:41:AE:F4:EA:70:8C:47:BE:93:47:D1:18
    Signature Algorithm: sha256WithRSAEncryption
    Signature Value:
        64:2b:ce:dc:98:20:3b:ae:3e:35:1f:f9:62:4b:f6:23:2d:d6:
        75:68:19:30:5c:b0:8d:76:ec:6e:24:7c:b0:0a:78:01:28:b5:
        90:f3:0a:5c:19:ab:3f:5e:10:cf:44:5d:bb:87:0b:d6:87:23:
        a2:b6:ab:b3:d1:58:03:75:2b:f4:e8:0f:1d:cd:fc:63:d4:6b:
        65:e0:55:ad:8e:96:c9:d7:53:b5:df:4d:f7:86:d5:58:a6:f1:
        31:e6:39:79:af:76:0f:8c:e0:4f:f1:42:3d:c1:93:2f:29:9c:
        e4:56:c5:17:91:77:ef:9f:04:48:99:db:cc:dd:bb:0e:ed:85:
        67:76:7a:4f:d9:9b:bc:a0:19:cd:bb:ba:33:26:28:68:77:9c:
        23:31:0e:c0:35:39:d8:bf:46:b2:0a:88:e7:b9:8a:38:11:22:
        36:e0:79:39:7e:0c:87:d1:37:71:60:aa:e0:81:38:90:36:17:
        35:15:1f:1d:1f:cf:fd:f5:23:c4:ab:7b:c0:a6:18:92:21:57:
        91:c3:b9:ce:ff:92:37:86:e0:00:6d:50:e9:d5:80:4f:9a:a4:
        6e:bb:87:af:eb:42:40:eb:22:b3:bc:e5:fd:b4:43:b2:07:fc:
        df:9e:ef:56:17:52:e8:c7:ec:9f:3d:6c:65:5a:a4:c8:c2:dd:
        4d:ed:ea:83:b7:69:02:04:46:f5:11:18:c9:d8:ba:75:42:42:
        5a:23:45:30:b4:9a:66:d5:cc:cd:f1:0e:1a:20:d5:03:69:fd:
        4f:4d:2a:f7:ce:05:6f:e2:73:28:81:9e:48:bf:8e:4e:46:0d:
        42:50:83:19:64:1f:bf:8b:42:dd:77:ae:20:cd:07:14:26:7c:
        52:11:ff:b8:ef:e1:4e:3e:ca:0f:72:bb:03:70:2b:c4:1a:13:
        2b:97:1b:59:3c:b7:ef:2e:d2:f2:ba:5a:3e:ad:a3:72:ec:17:
        cc:ca:74:a2:ad:cf:35:8c:89:c6:64:c2:e1:9c:14:46:42:3d:
        1e:22:dc:04:ba:63:06:6c:da:c6:b7:ba:a5:41:3d:00:aa:4f:
        33:4d:c4:0f:0d:ba:2c:fc:1f:c6:b2:5d:7d:6e:52:69:6e:a6:
        7a:b8:2d:41:a5:53:33:05:5e:be:e1:b8:55:7b:0f:63:92:74:
        5b:42:c9:16:66:4a:30:51:b7:4b:34:fa:19:6b:d5:29:bc:d7:
        d1:3d:c9:9c:ab:c9:3a:70:a3:4c:8f:ff:9a:78:99:69:70:23:
        90:e7:da:23:33:4b:56:7f:f5:84:5f:61:b3:11:02:66:eb:8a:
        3c:fe:58:20:fd:6c:19:4f:63:09:90:26:9d:f4:eb:9e:d4:cb:
        45:c4:87:22:bc:70:25:27
-----BEGIN CERTIFICATE-----
MIIEHTCCAgWgAwIBAgICIAEwDQYJKoZIhvcNAQELBQAwFjEUMBIGA1UEAwwLTXlJ
c3N1aW5nQ0EwHhcNMjUxMTI0MTQzMDMwWhcNMjgwMjI3MTQzMDMwWjASMRAwDgYD
VQQDDAdjbGllbnQxMIIBIjANBgkqhkiG9w0BAQEFAAOCAQ8AMIIBCgKCAQEAnNjN
TXxvuu4BftCElD4zTIjgeuiWB/9lztoM10GCEiHLZr21yoV9beTMEObGgSNfAqJh
bI1LaKOaRqkLiUeAzpAQ7btP/ILA32WMgX+E38ubvumY4aHyc01bqpvoMymqoD8M
prwBV56yQJuOuyXWb0RDxF4YnhM5vcvcJd+74zz6z+RNiEEZh7XKFRb3ct04xihR
bPY2EDTKJ1AG+vZSkBoMN25XEvSb6JbPmo7mtQf83JHa3MRNkBe0OFiiWU1REEEd
oblTh2BIBIvRDGtij66BrcCGw4K7re19jt6Ae0W0hsHaiwhIlIBzLWZeqIkd2Urh
3DhN7DpBGoNRSVeBwQIDAQABo3kwdzAJBgNVHRMEAjAAMAsGA1UdDwQEAwIFoDAd
BgNVHSUEFjAUBggrBgEFBQcDAQYIKwYBBQUHAwIwHQYDVR0OBBYEFIJ7FWBx/eLI
PAHN3DzmhvsDPXHTMB8GA1UdIwQYMBaAFH5ofsA88OcHQa706nCMR76TR9EYMA0G
CSqGSIb3DQEBCwUAA4ICAQBkK87cmCA7rj41H/liS/YjLdZ1aBkwXLCNduxuJHyw
CngBKLWQ8wpcGas/XhDPRF27hwvWhyOitquz0VgDdSv06A8dzfxj1Gtl4FWtjpbJ
11O13033htVYpvEx5jl5r3YPjOBP8UI9wZMvKZzkVsUXkXfvnwRImdvM3bsO7YVn
dnpP2Zu8oBnNu7ozJihod5wjMQ7ANTnYv0ayCojnuYo4ESI24Hk5fgyH0TdxYKrg
gTiQNhc1FR8dH8/99SPEq3vAphiSIVeRw7nO/5I3huAAbVDp1YBPmqRuu4ev60JA
6yKzvOX9tEOyB/zfnu9WF1Lox+yfPWxlWqTIwt1N7eqDt2kCBEb1ERjJ2Lp1QkJa
I0UwtJpm1czN8Q4aINUDaf1PTSr3zgVv4nMogZ5Iv45ORg1CUIMZZB+/i0Ldd64g
zQcUJnxSEf+47+FOPsoPcrsDcCvEGhMrlxtZPLfvLtLyulo+raNy7BfMynSirc81
jInGZMLhnBRGQj0eItwEumMGbNrGt7qlQT0Aqk8zTcQPDbos/B/Gsl19blJpbqZ6
uC1BpVMzBV6+4bhVew9jknRbQskWZkowUbdLNPoZa9UpvNfRPcmcq8k6cKNMj/+a
eJlpcCOQ59ojM0tWf/WEX2GzEQJm64o8/lgg/WwZT2MJkCad9Oue1MtFxIcivHAl
Jw==
-----END CERTIFICATE-----
Certificate:
    Data:
        Version: 3 (0x2)
        Serial Number: 4098 (0x1002)
        Signature Algorithm: sha256WithRSAEncryption
        Issuer: CN=MyRootCA
        Validity
            Not Before: Nov 24 14:23:40 2025 GMT
            Not After : Nov 22 14:23:40 2035 GMT
        Subject: CN=MyIssuingCA
        Subject Public Key Info:
            Public Key Algorithm: rsaEncryption
                Public-Key: (4096 bit)
                Modulus:
                    00:ad:c5:0b:e7:a5:5d:fc:8b:ef:c4:6b:47:20:ad:
                    31:c8:d5:81:ce:f1:ee:3a:80:5d:fc:f2:cd:b7:b3:
                    c8:a7:d4:e3:67:c0:34:dd:e5:71:24:18:e6:18:da:
                    64:61:4c:50:ea:62:03:7e:61:14:43:90:11:e2:87:
                    ec:3b:09:a8:9b:4d:bd:23:c5:92:1b:49:47:ce:a7:
                    7b:67:16:9d:7a:a1:c8:3d:06:4c:b3:7e:17:e9:2a:
                    bf:3f:50:f8:fe:ac:21:a8:23:4e:1a:26:73:3f:c9:
                    53:19:6c:e2:5f:b9:53:da:2a:62:e8:ec:e1:d1:d3:
                    e2:29:0a:a5:8c:8d:b3:ac:d9:8a:ab:60:c7:48:8e:
                    35:d2:57:bf:34:47:be:cf:c5:dd:ed:d6:8d:56:9a:
                    f2:72:b5:93:8f:fb:c4:1d:84:dd:d8:6b:e6:67:da:
                    60:c8:6a:9f:05:8f:29:cb:69:2b:17:d9:32:ff:2a:
                    4f:4a:c3:6e:3e:d0:54:9f:8d:d5:0c:a5:a4:95:f4:
                    47:44:45:a6:ba:76:71:ca:b2:1c:3e:cc:bc:c2:63:
                    a5:7e:d8:ca:bc:23:31:20:e7:14:c7:f3:24:24:c5:
                    1e:44:35:5d:c7:02:ef:b0:cb:8d:9c:aa:41:05:88:
                    8b:f5:11:63:45:77:d8:54:5e:17:95:26:ab:4a:14:
                    51:b2:80:32:e2:5b:c3:8c:16:39:d8:d0:90:01:70:
                    c3:d8:cd:80:20:80:87:d7:3e:c2:74:43:5c:61:8a:
                    7b:e2:d1:e5:5d:c6:33:ca:7c:e2:72:9a:c4:5d:f2:
                    22:3c:6d:4b:c4:41:a7:c0:25:38:c8:a3:de:5c:6c:
                    a9:3a:6a:68:64:b6:b0:80:03:bd:e7:f5:d3:53:64:
                    e4:b3:f2:78:9a:c2:5b:56:ae:33:51:fb:77:ff:35:
                    f2:dc:02:aa:e9:24:31:00:1d:e3:21:6f:46:a6:63:
                    aa:30:d4:07:d8:95:8e:b8:1c:d0:26:ae:ef:f2:df:
                    ff:fb:7a:f1:9f:2d:3a:a0:a3:18:5d:ab:7d:62:ad:
                    aa:42:f0:51:df:0f:84:7a:6a:75:cb:cf:d4:32:7c:
                    e7:8c:cf:ad:fd:94:9b:7a:e5:2d:88:8f:b0:bc:4d:
                    4e:a2:23:31:84:23:7c:2e:68:13:0c:33:d5:24:de:
                    e4:2f:22:9e:87:17:17:6b:f1:80:f5:9b:b1:ba:8a:
                    7b:b5:2d:2a:29:fe:db:cd:8f:30:93:bb:b2:1a:86:
                    cd:a0:79:3e:aa:37:1f:27:88:49:5b:32:c4:02:36:
                    e4:df:83:fe:d1:8d:af:d3:df:1c:c2:60:cc:1c:d0:
                    61:c3:07:2d:87:e3:9b:7e:7b:f9:2f:26:55:b4:03:
                    50:ec:0d
                Exponent: 65537 (0x10001)
        X509v3 extensions:
            X509v3 Basic Constraints: critical
                CA:TRUE
            X509v3 Key Usage: critical
                Digital Signature, Certificate Sign, CRL Sign
            X509v3 Subject Key Identifier: 
                7E:68:7E:C0:3C:F0:E7:07:41:AE:F4:EA:70:8C:47:BE:93:47:D1:18
            X509v3 Authority Key Identifier: 
                DC:C7:E1:A1:AF:94:5E:EE:3C:FF:5F:0D:08:AA:88:9C:B4:11:16:C9
    Signature Algorithm: sha256WithRSAEncryption
    Signature Value:
        1d:93:98:16:c5:f9:25:86:90:d9:bb:ed:bb:8d:cc:c8:2d:46:
        4f:66:67:c9:01:ec:f5:36:69:7c:af:e4:02:12:c8:e6:e2:7f:
        e0:57:1f:d7:8b:e4:c3:dd:c8:89:e6:92:e2:7b:77:2f:69:09:
        00:ea:9b:6b:d0:53:6f:4f:e2:9e:c8:77:49:23:06:9c:c0:b0:
        15:38:46:e1:39:7d:09:13:7a:a7:e7:9e:fc:64:3a:5f:57:5b:
        ff:1f:97:7a:ef:c9:d0:aa:91:70:f6:6d:9d:3c:33:77:74:3c:
        7d:6b:d2:08:75:72:6f:b6:2b:50:25:19:59:46:20:72:6b:e4:
        c7:04:2d:85:22:28:6e:c2:15:26:31:e6:b8:52:12:e7:4d:7e:
        0b:3f:ea:f2:57:12:67:9d:38:e1:d8:08:42:a2:8d:c4:1d:7d:
        ef:2a:b5:8e:56:e4:6d:43:94:aa:71:29:a8:69:e4:eb:73:6f:
        9a:13:3a:8d:2e:a8:98:b0:09:b9:6d:98:a2:70:e5:e9:03:35:
        67:f2:a1:86:94:d6:88:6a:bd:df:95:b5:81:07:48:5c:8b:a6:
        70:1f:af:da:1c:37:dc:41:68:08:c4:2c:df:f0:f0:1e:5b:c7:
        86:93:72:cf:c4:b0:f0:e0:57:13:9c:a2:7e:49:17:8f:69:c4:
        3a:61:9c:e9:8d:ce:39:ee:e0:ba:8b:c7:50:83:2c:ff:a3:f0:
        41:73:76:e3:68:64:b4:fe:11:bc:be:49:7f:1c:da:7f:12:d9:
        a0:8b:e6:50:8d:aa:7e:ca:7b:1e:13:79:8b:7a:42:93:f4:b7:
        79:89:d9:f7:62:99:f7:99:7e:aa:8c:58:11:c1:8a:4b:87:4c:
        d3:2c:f1:de:c8:d7:80:6b:1a:f2:78:ea:3e:64:47:73:9c:5c:
        b8:cb:b5:f9:8a:61:a7:c0:38:e3:6b:7a:04:4a:70:fe:70:9d:
        d5:36:a9:46:31:52:7f:39:6e:c3:9c:b1:9e:65:c7:ad:4a:77:
        30:80:23:86:f7:fc:3a:52:a3:84:69:0b:c4:3d:08:82:60:0d:
        f4:6f:40:37:de:b5:eb:19:fb:3a:d5:49:da:6e:b1:e1:61:8d:
        73:62:bd:b9:1c:4e:ad:d0:68:af:47:50:80:74:ba:ba:b9:02:
        49:6b:af:bb:df:28:bc:02:71:a5:68:07:1d:a0:c6:0d:8d:db:
        84:e8:dc:06:7e:8f:e5:19:ac:fc:40:d7:76:a6:0a:d7:4c:9d:
        8a:47:7e:5c:80:25:34:3b:63:8a:f4:2f:62:14:39:bd:0a:1e:
        08:f4:fd:07:20:d7:be:c4:1f:84:06:5c:22:a3:7e:ee:1d:b6:
        bd:b0:ad:3e:c3:06:54:9b
-----BEGIN CERTIFICATE-----
MIIFCDCCAvCgAwIBAgICEAIwDQYJKoZIhvcNAQELBQAwEzERMA8GA1UEAwwITXlS
b290Q0EwHhcNMjUxMTI0MTQyMzQwWhcNMzUxMTIyMTQyMzQwWjAWMRQwEgYDVQQD
DAtNeUlzc3VpbmdDQTCCAiIwDQYJKoZIhvcNAQEBBQADggIPADCCAgoCggIBAK3F
C+elXfyL78RrRyCtMcjVgc7x7jqAXfzyzbezyKfU42fANN3lcSQY5hjaZGFMUOpi
A35hFEOQEeKH7DsJqJtNvSPFkhtJR86ne2cWnXqhyD0GTLN+F+kqvz9Q+P6sIagj
Thomcz/JUxls4l+5U9oqYujs4dHT4ikKpYyNs6zZiqtgx0iONdJXvzRHvs/F3e3W
jVaa8nK1k4/7xB2E3dhr5mfaYMhqnwWPKctpKxfZMv8qT0rDbj7QVJ+N1QylpJX0
R0RFprp2ccqyHD7MvMJjpX7YyrwjMSDnFMfzJCTFHkQ1XccC77DLjZyqQQWIi/UR
Y0V32FReF5Umq0oUUbKAMuJbw4wWOdjQkAFww9jNgCCAh9c+wnRDXGGKe+LR5V3G
M8p84nKaxF3yIjxtS8RBp8AlOMij3lxsqTpqaGS2sIADvef101Nk5LPyeJrCW1au
M1H7d/818twCqukkMQAd4yFvRqZjqjDUB9iVjrgc0Cau7/Lf//t68Z8tOqCjGF2r
fWKtqkLwUd8PhHpqdcvP1DJ854zPrf2Um3rlLYiPsLxNTqIjMYQjfC5oEwwz1STe
5C8inocXF2vxgPWbsbqKe7UtKin+282PMJO7shqGzaB5Pqo3HyeISVsyxAI25N+D
/tGNr9PfHMJgzBzQYcMHLYfjm357+S8mVbQDUOwNAgMBAAGjYzBhMA8GA1UdEwEB
/wQFMAMBAf8wDgYDVR0PAQH/BAQDAgGGMB0GA1UdDgQWBBR+aH7APPDnB0Gu9Opw
jEe+k0fRGDAfBgNVHSMEGDAWgBTcx+Ghr5Re7jz/Xw0IqoictBEWyTANBgkqhkiG
9w0BAQsFAAOCAgEAHZOYFsX5JYaQ2bvtu43MyC1GT2ZnyQHs9TZpfK/kAhLI5uJ/
4Fcf14vkw93IieaS4nt3L2kJAOqba9BTb0/insh3SSMGnMCwFThG4Tl9CRN6p+ee
/GQ6X1db/x+Xeu/J0KqRcPZtnTwzd3Q8fWvSCHVyb7YrUCUZWUYgcmvkxwQthSIo
bsIVJjHmuFIS501+Cz/q8lcSZ5044dgIQqKNxB197yq1jlbkbUOUqnEpqGnk63Nv
mhM6jS6omLAJuW2YonDl6QM1Z/KhhpTWiGq935W1gQdIXIumcB+v2hw33EFoCMQs
3/DwHlvHhpNyz8Sw8OBXE5yifkkXj2nEOmGc6Y3OOe7guovHUIMs/6PwQXN242hk
tP4RvL5JfxzafxLZoIvmUI2qfsp7HhN5i3pCk/S3eYnZ92KZ95l+qoxYEcGKS4dM
0yzx3sjXgGsa8njqPmRHc5xcuMu1+Yphp8A442t6BEpw/nCd1TapRjFSfzluw5yx
nmXHrUp3MIAjhvf8OlKjhGkLxD0IgmAN9G9AN9616xn7OtVJ2m6x4WGNc2K9uRxO
rdBor0dQgHS6urkCSWuvu98ovAJxpWgHHaDGDY3bhOjcBn6P5Rms/EDXdqYK10yd
ikd+XIAlNDtjivQvYhQ5vQoeCPT9ByDXvsQfhAZcIqN+7h22vbCtPsMGVJs=
-----END CERTIFICATE-----
