Certificate:
    Data:
        Version: 3 (0x2)
        Serial Number: 4098 (0x1002)
        Signature Algorithm: sha256WithRSAEncryption
        Issuer: CN=MyRootCA
        Validity
            Not Before: Nov 24 14:23:40 2025 GMT
            Not After : Nov 22 14:23:40 2035 GMT
        Subject: CN=MyIssuingCA
        Subject Public Key Info:
            Public Key Algorithm: rsaEncryption
                Public-Key: (4096 bit)
                Modulus:
                    00:ad:c5:0b:e7:a5:5d:fc:8b:ef:c4:6b:47:20:ad:
                    31:c8:d5:81:ce:f1:ee:3a:80:5d:fc:f2:cd:b7:b3:
                    c8:a7:d4:e3:67:c0:34:dd:e5:71:24:18:e6:18:da:
                    64:61:4c:50:ea:62:03:7e:61:14:43:90:11:e2:87:
                    ec:3b:09:a8:9b:4d:bd:23:c5:92:1b:49:47:ce:a7:
                    7b:67:16:9d:7a:a1:c8:3d:06:4c:b3:7e:17:e9:2a:
                    bf:3f:50:f8:fe:ac:21:a8:23:4e:1a:26:73:3f:c9:
                    53:19:6c:e2:5f:b9:53:da:2a:62:e8:ec:e1:d1:d3:
                    e2:29:0a:a5:8c:8d:b3:ac:d9:8a:ab:60:c7:48:8e:
                    35:d2:57:bf:34:47:be:cf:c5:dd:ed:d6:8d:56:9a:
                    f2:72:b5:93:8f:fb:c4:1d:84:dd:d8:6b:e6:67:da:
                    60:c8:6a:9f:05:8f:29:cb:69:2b:17:d9:32:ff:2a:
                    4f:4a:c3:6e:3e:d0:54:9f:8d:d5:0c:a5:a4:95:f4:
                    47:44:45:a6:ba:76:71:ca:b2:1c:3e:cc:bc:c2:63:
                    a5:7e:d8:ca:bc:23:31:20:e7:14:c7:f3:24:24:c5:
                    1e:44:35:5d:c7:02:ef:b0:cb:8d:9c:aa:41:05:88:
                    8b:f5:11:63:45:77:d8:54:5e:17:95:26:ab:4a:14:
                    51:b2:80:32:e2:5b:c3:8c:16:39:d8:d0:90:01:70:
                    c3:d8:cd:80:20:80:87:d7:3e:c2:74:43:5c:61:8a:
                    7b:e2:d1:e5:5d:c6:33:ca:7c:e2:72:9a:c4:5d:f2:
                    22:3c:6d:4b:c4:41:a7:c0:25:38:c8:a3:de:5c:6c:
                    a9:3a:6a:68:64:b6:b0:80:03:bd:e7:f5:d3:53:64:
                    e4:b3:f2:78:9a:c2:5b:56:ae:33:51:fb:77:ff:35:
                    f2:dc:02:aa:e9:24:31:00:1d:e3:21:6f:46:a6:63:
                    aa:30:d4:07:d8:95:8e:b8:1c:d0:26:ae:ef:f2:df:
                    ff:fb:7a:f1:9f:2d:3a:a0:a3:18:5d:ab:7d:62:ad:
                    aa:42:f0:51:df:0f:84:7a:6a:75:cb:cf:d4:32:7c:
                    e7:8c:cf:ad:fd:94:9b:7a:e5:2d:88:8f:b0:bc:4d:
                    4e:a2:23:31:84:23:7c:2e:68:13:0c:33:d5:24:de:
                    e4:2f:22:9e:87:17:17:6b:f1:80:f5:9b:b1:ba:8a:
                    7b:b5:2d:2a:29:fe:db:cd:8f:30:93:bb:b2:1a:86:
                    cd:a0:79:3e:aa:37:1f:27:88:49:5b:32:c4:02:36:
                    e4:df:83:fe:d1:8d:af:d3:df:1c:c2:60:cc:1c:d0:
                    61:c3:07:2d:87:e3:9b:7e:7b:f9:2f:26:55:b4:03:
                    50:ec:0d
                Exponent: 65537 (0x10001)
        X509v3 extensions:
            X509v3 Basic Constraints: critical
                CA:TRUE
            X509v3 Key Usage: critical
                Digital Signature, Certificate Sign, CRL Sign
            X509v3 Subject Key Identifier: 
                7E:68:7E:C0:3C:F0:E7:07:41:AE:F4:EA:70:8C:47:BE:93:47:D1:18
            X509v3 Authority Key Identifier: 
                DC:C7:E1:A1:AF:94:5E:EE:3C:FF:5F:0D:08:AA:88:9C:B4:11:16:C9
    Signature Algorithm: sha256WithRSAEncryption
    Signature Value:
        1d:93:98:16:c5:f9:25:86:90:d9:bb:ed:bb:8d:cc:c8:2d:46:
        4f:66:67:c9:01:ec:f5:36:69:7c:af:e4:02:12:c8:e6:e2:7f:
        e0:57:1f:d7:8b:e4:c3:dd:c8:89:e6:92:e2:7b:77:2f:69:09:
        00:ea:9b:6b:d0:53:6f:4f:e2:9e:c8:77:49:23:06:9c:c0:b0:
        15:38:46:e1:39:7d:09:13:7a:a7:e7:9e:fc:64:3a:5f:57:5b:
        ff:1f:97:7a:ef:c9:d0:aa:91:70:f6:6d:9d:3c:33:77:74:3c:
        7d:6b:d2:08:75:72:6f:b6:2b:50:25:19:59:46:20:72:6b:e4:
        c7:04:2d:85:22:28:6e:c2:15:26:31:e6:b8:52:12:e7:4d:7e:
        0b:3f:ea:f2:57:12:67:9d:38:e1:d8:08:42:a2:8d:c4:1d:7d:
        ef:2a:b5:8e:56:e4:6d:43:94:aa:71:29:a8:69:e4:eb:73:6f:
        9a:13:3a:8d:2e:a8:98:b0:09:b9:6d:98:a2:70:e5:e9:03:35:
        67:f2:a1:86:94:d6:88:6a:bd:df:95:b5:81:07:48:5c:8b:a6:
        70:1f:af:da:1c:37:dc:41:68:08:c4:2c:df:f0:f0:1e:5b:c7:
        86:93:72:cf:c4:b0:f0:e0:57:13:9c:a2:7e:49:17:8f:69:c4:
        3a:61:9c:e9:8d:ce:39:ee:e0:ba:8b:c7:50:83:2c:ff:a3:f0:
        41:73:76:e3:68:64:b4:fe:11:bc:be:49:7f:1c:da:7f:12:d9:
        a0:8b:e6:50:8d:aa:7e:ca:7b:1e:13:79:8b:7a:42:93:f4:b7:
        79:89:d9:f7:62:99:f7:99:7e:aa:8c:58:11:c1:8a:4b:87:4c:
        d3:2c:f1:de:c8:d7:80:6b:1a:f2:78:ea:3e:64:47:73:9c:5c:
        b8:cb:b5:f9:8a:61:a7:c0:38:e3:6b:7a:04:4a:70:fe:70:9d:
        d5:36:a9:46:31:52:7f:39:6e:c3:9c:b1:9e:65:c7:ad:4a:77:
        30:80:23:86:f7:fc:3a:52:a3:84:69:0b:c4:3d:08:82:60:0d:
        f4:6f:40:37:de:b5:eb:19:fb:3a:d5:49:da:6e:b1:e1:61:8d:
        73:62:bd:b9:1c:4e:ad:d0:68:af:47:50:80:74:ba:ba:b9:02:
        49:6b:af:bb:df:28:bc:02:71:a5:68:07:1d:a0:c6:0d:8d:db:
        84:e8:dc:06:7e:8f:e5:19:ac:fc:40:d7:76:a6:0a:d7:4c:9d:
        8a:47:7e:5c:80:25:34:3b:63:8a:f4:2f:62:14:39:bd:0a:1e:
        08:f4:fd:07:20:d7:be:c4:1f:84:06:5c:22:a3:7e:ee:1d:b6:
        bd:b0:ad:3e:c3:06:54:9b
-----BEGIN CERTIFICATE-----
MIIFCDCCAvCgAwIBAgICEAIwDQYJKoZIhvcNAQELBQAwEzERMA8GA1UEAwwITXlS
b290Q0EwHhcNMjUxMTI0MTQyMzQwWhcNMzUxMTIyMTQyMzQwWjAWMRQwEgYDVQQD
DAtNeUlzc3VpbmdDQTCCAiIwDQYJKoZIhvcNAQEBBQADggIPADCCAgoCggIBAK3F
C+elXfyL78RrRyCtMcjVgc7x7jqAXfzyzbezyKfU42fANN3lcSQY5hjaZGFMUOpi
A35hFEOQEeKH7DsJqJtNvSPFkhtJR86ne2cWnXqhyD0GTLN+F+kqvz9Q+P6sIagj
Thomcz/JUxls4l+5U9oqYujs4dHT4ikKpYyNs6zZiqtgx0iONdJXvzRHvs/F3e3W
jVaa8nK1k4/7xB2E3dhr5mfaYMhqnwWPKctpKxfZMv8qT0rDbj7QVJ+N1QylpJX0
R0RFprp2ccqyHD7MvMJjpX7YyrwjMSDnFMfzJCTFHkQ1XccC77DLjZyqQQWIi/UR
Y0V32FReF5Umq0oUUbKAMuJbw4wWOdjQkAFww9jNgCCAh9c+wnRDXGGKe+LR5V3G
M8p84nKaxF3yIjxtS8RBp8AlOMij3lxsqTpqaGS2sIADvef101Nk5LPyeJrCW1au
M1H7d/818twCqukkMQAd4yFvRqZjqjDUB9iVjrgc0Cau7/Lf//t68Z8tOqCjGF2r
fWKtqkLwUd8PhHpqdcvP1DJ854zPrf2Um3rlLYiPsLxNTqIjMYQjfC5oEwwz1STe
5C8inocXF2vxgPWbsbqKe7UtKin+282PMJO7shqGzaB5Pqo3HyeISVsyxAI25N+D
/tGNr9PfHMJgzBzQYcMHLYfjm357+S8mVbQDUOwNAgMBAAGjYzBhMA8GA1UdEwEB
/wQFMAMBAf8wDgYDVR0PAQH/BAQDAgGGMB0GA1UdDgQWBBR+aH7APPDnB0Gu9Opw
jEe+k0fRGDAfBgNVHSMEGDAWgBTcx+Ghr5Re7jz/Xw0IqoictBEWyTANBgkqhkiG
9w0BAQsFAAOCAgEAHZOYFsX5JYaQ2bvtu43MyC1GT2ZnyQHs9TZpfK/kAhLI5uJ/
4Fcf14vkw93IieaS4nt3L2kJAOqba9BTb0/insh3SSMGnMCwFThG4Tl9CRN6p+ee
/GQ6X1db/x+Xeu/J0KqRcPZtnTwzd3Q8fWvSCHVyb7YrUCUZWUYgcmvkxwQthSIo
bsIVJjHmuFIS501+Cz/q8lcSZ5044dgIQqKNxB197yq1jlbkbUOUqnEpqGnk63Nv
mhM6jS6omLAJuW2YonDl6QM1Z/KhhpTWiGq935W1gQdIXIumcB+v2hw33EFoCMQs
3/DwHlvHhpNyz8Sw8OBXE5yifkkXj2nEOmGc6Y3OOe7guovHUIMs/6PwQXN242hk
tP4RvL5JfxzafxLZoIvmUI2qfsp7HhN5i3pCk/S3eYnZ92KZ95l+qoxYEcGKS4dM
0yzx3sjXgGsa8njqPmRHc5xcuMu1+Yphp8A442t6BEpw/nCd1TapRjFSfzluw5yx
nmXHrUp3MIAjhvf8OlKjhGkLxD0IgmAN9G9AN9616xn7OtVJ2m6x4WGNc2K9uRxO
rdBor0dQgHS6urkCSWuvu98ovAJxpWgHHaDGDY3bhOjcBn6P5Rms/EDXdqYK10yd
ikd+XIAlNDtjivQvYhQ5vQoeCPT9ByDXvsQfhAZcIqN+7h22vbCtPsMGVJs=
-----END CERTIFICATE-----
-----BEGIN CERTIFICATE-----
MIIE9jCCAt6gAwIBAgIUME/jpasgCDxX9Pg2a1/hGtQVaYEwDQYJKoZIhvcNAQEL
BQAwEzERMA8GA1UEAwwITXlSb290Q0EwHhcNMjUxMTE4MDIxOTEyWhcNMzUxMTE2
MDIxOTEyWjATMREwDwYDVQQDDAhNeVJvb3RDQTCCAiIwDQYJKoZIhvcNAQEBBQAD
ggIPADCCAgoCggIBANbbTW0CucYVwXoX0rvfXxfe09frO5+qPBIr4chVaxg8ecq2
8jJK10q457EA827EU6KbAISgRvNgxpQp1SF1vV1YYDFFSqZMOx5Xo29vZ1Mf8/ds
0FmFgBmSEL+9ECfGP+InpxHSeRoSQ9UZLbthNN9kKoQgHCJFlYHsJt/NQWlcmotG
3kkrpOOdbmB7lugqf5qdesz0qhGD865zrFso7kh8J2DgxMXvUn5b/D8Oe4Wk3DDR
iaI+hSBu2t7lGXIalAUh+KdCKlhH38oBnVB2dsUQV5l2YnqNX1uU5R1t8AOZ8bwI
4Mgj5zTwJwSBa8toStWPh0AJYoe3478D9AQmYktx1ClKWZPEIHHDGIJ1O1d/Jyk7
oHRlenVoq0/GQYgBgouq9udGrQpAlrtiHumGr1Csjc3cNLrxXsxxsAPJmBrJ5sFe
7wDH9v009irvXkgxbacTWKhEAKYxX8z9lFhmZIlHCZSZ1a+4ukKeh0aKFIqqU6n1
Sn77hPYGdOuO3wQKtqyJsk9ZODWI45N8ufl1YIkb2pOxnLaaMoeCIQ0WDrHQlWQe
UORRbLWB8iU2gnZWkNu3yi2e24f40eUpi0ko8FKYQtBJBasdjowDArG17/Gku70x
m31KNIZzDs3pxDEUORv/GmpS1Ribp4hAycBIxVQA8F2fzzHzJl2PRPa5mm9pAgMB
AAGjQjBAMA8GA1UdEwEB/wQFMAMBAf8wDgYDVR0PAQH/BAQDAgGGMB0GA1UdDgQW
BBTcx+Ghr5Re7jz/Xw0IqoictBEWyTANBgkqhkiG9w0BAQsFAAOCAgEAj1lQ2YXF
YukgVKV6PF/TA5S9YTsfhamrP98C2Pr0c8DL8xJ8ufAU0pL6OS3gpAWaIBghD6Mv
RDCsol+HXChpYkgzDrQyK1hgNCvN81uBnEMwZuOCRdRsRlcUdp+v02IyO72WXp7/
7Pep70NSkKnc0i0IsYQoaNMZL66NXdQvc2F1pnZlyBO/S5XSiulvCxY5klFNEzXU
AMnLVrdOZgtpOLig+w8xYWNl7NI9+lF/VadfnFZ2iRimYReipJD/ZckPVM7BYXzp
hWKyxI1/PA+wsjmW7lGD9e6NnmIsXDYo5kkRVIkg5OU5+3EO0oWGJFQmdkxF1uXo
wf+4Fx/Ra3df7PtVVblkjlIFR2nujYegiEuqxSUHh/A8AyQZ1YuCcddnbOT6c7Ry
PBGn4A59vZnA6JrDrBMwDGrGVm8GeSAfe5K7uiz5z2Wd7jMKekVXVpSW8TcQSl+H
3dxLYw0JJv0H3rDLQkUkCJPUx/yipSEvppriKBTvv2fg4JqjcN3/2LDUGgCUghFx
kekYLqy5pv3uKkWPPXr624ZLUpMS/1m9GEvre1LU99pAclgYorQXk43OlxRgeIJG
Kx7wum4/uVTpce7NNrFPGd4VLcni8v6FxZUrmALgzzbFaIJdRmIbDSZCGgLaZJF2
HfjgjFhIVSJahUFkNgZFlq+Kn7NyqvlnN1A=
-----END CERTIFICATE-----
