Certificate:
    Data:
        Version: 1 (0x0)
        Serial Number: 4096 (0x1000)
        Signature Algorithm: sha256WithRSAEncryption
        Issuer: CN=MyRootCA
        Validity
            Not Before: Nov 18 02:22:52 2025 GMT
            Not After : Nov 16 02:22:52 2035 GMT
        Subject: CN=localhost
        Subject Public Key Info:
            Public Key Algorithm: rsaEncryption
                Public-Key: (2048 bit)
                Modulus:
                    00:ab:32:08:68:4c:5a:80:03:d1:ed:ba:e6:9a:fc:
                    fe:fe:ed:e6:f8:39:a4:6c:e5:fe:71:c9:e2:c5:f3:
                    ca:7c:73:2a:75:4e:9c:08:08:fa:53:8a:e6:40:d6:
                    7a:fa:8c:f5:1e:4b:8f:72:ad:30:4c:3e:5c:90:e4:
                    46:c5:65:97:6c:37:ed:74:e8:b8:b0:98:d8:cf:04:
                    d0:4a:38:f4:e4:9c:18:be:50:21:ee:74:2b:9c:71:
                    0c:ea:7e:46:c3:6d:f6:72:d7:e9:7e:6a:e3:05:9d:
                    71:37:9c:1c:4f:cc:db:15:a5:96:4a:ae:16:e9:fe:
                    b6:b7:f1:b5:3e:f6:4b:8a:59:8e:d1:0b:90:00:90:
                    2e:86:5c:b3:9a:41:95:e9:3f:76:45:8a:6b:48:e8:
                    2b:3d:fc:73:6a:51:87:d0:66:6e:91:60:01:29:a6:
                    9c:2a:1a:27:87:84:7c:b8:6b:5a:59:0e:d1:8b:a8:
                    89:86:40:e2:9f:6c:4a:08:f9:e0:9a:f4:66:36:6e:
                    f2:24:28:ba:cf:75:ed:78:df:40:d3:fd:a7:29:f8:
                    c6:27:3f:a4:d3:1d:4c:e4:0c:96:21:4b:05:57:80:
                    2b:81:74:0a:28:d6:57:44:f8:eb:e6:ed:48:0a:cf:
                    45:82:61:2c:37:54:ff:ab:ee:bc:44:a3:4c:cd:56:
                    07:ad
                Exponent: 65537 (0x10001)
    Signature Algorithm: sha256WithRSAEncryption
    Signature Value:
        4b:a9:72:35:7f:a3:5b:a0:8c:2b:5c:2e:82:3b:0b:a8:fa:13:
        07:e8:66:fd:7f:7e:c0:6d:a5:46:e9:20:1c:d0:fd:d3:40:a2:
        fe:94:91:e2:a7:78:26:57:31:f6:97:da:3a:ad:26:3e:a5:72:
        db:84:25:b5:c2:7a:18:cf:2d:04:0c:aa:0c:5c:07:f0:71:2d:
        ee:13:06:e4:a4:17:d3:18:6b:57:57:10:a1:31:38:56:24:7b:
        ca:b0:1a:09:96:17:7f:e9:36:3c:f2:a2:b0:64:58:39:3b:c4:
        25:b5:d3:7d:24:45:7f:02:be:6f:90:31:ad:40:92:03:7c:84:
        b5:39:8b:11:c2:72:8d:d6:42:ed:b5:80:1f:6e:87:8a:ad:aa:
        4c:91:c0:db:e3:9e:c0:d8:ae:e2:53:50:af:73:46:12:bc:46:
        c3:a1:60:b4:11:69:28:d9:16:af:72:88:aa:23:65:6c:32:7e:
        4d:14:11:e1:93:d9:09:63:1b:f1:e7:4b:28:5b:bf:c2:29:ca:
        d7:94:bf:75:8b:c5:f7:a7:20:8a:33:81:3d:a2:65:78:83:c8:
        8a:13:9f:bd:24:6f:cb:47:f7:7e:d2:2d:49:10:79:78:4d:86:
        21:21:b3:30:c7:72:fb:e8:0e:27:54:f9:9a:25:86:09:d7:a4:
        2b:ba:80:b8:b0:27:97:9d:8b:b6:e0:be:53:a4:e9:82:fa:37:
        06:47:04:a1:61:08:b0:85:b4:71:3c:46:11:d5:eb:fa:40:46:
        8d:2a:6a:2e:2d:25:89:32:56:8a:41:fb:71:61:d3:26:94:95:
        b1:33:78:f0:8e:82:28:db:42:9f:6a:a3:f7:3e:76:cd:ac:2c:
        a3:c4:d9:f8:48:6b:ba:dc:b7:22:c9:e9:9b:a5:48:de:87:a3:
        82:00:71:d5:75:c1:67:a5:eb:6a:89:58:aa:1b:32:57:23:d5:
        33:24:cd:52:70:91:7b:77:45:a6:c5:0f:fc:99:6c:09:75:3d:
        b5:22:d5:01:8c:ba:d3:86:d8:0f:26:ba:17:da:2d:c3:2b:69:
        0c:fb:25:09:f2:5f:8f:e1:ae:b5:b2:cb:1d:8f:da:66:f5:71:
        6a:82:0b:1d:f3:28:0e:13:26:6c:d1:6b:7b:a1:c4:b4:c0:0b:
        3a:24:6e:73:aa:95:8d:c4:2a:37:69:ef:b6:fb:47:63:32:31:
        0a:fe:c2:41:9e:c4:51:ed:0f:22:92:35:c5:8c:de:cf:8e:15:
        75:50:6b:3d:d7:f4:0d:d6:4b:b9:8b:ee:28:91:90:88:e3:97:
        a2:6a:e6:5c:da:2c:44:e0:07:88:04:d8:e0:96:33:77:fa:7b:
        53:12:65:bc:00:26:83:4b
-----BEGIN CERTIFICATE-----
MIIDnDCCAYQCAhAAMA0GCSqGSIb3DQEBCwUAMBMxETAPBgNVBAMMCE15Um9vdENB
MB4XDTI1MTExODAyMjI1MloXDTM1MTExNjAyMjI1MlowFDESMBAGA1UEAwwJbG9j
YWxob3N0MIIBIjANBgkqhkiG9w0BAQEFAAOCAQ8AMIIBCgKCAQEAqzIIaExagAPR
7brmmvz+/u3m+DmkbOX+ccnixfPKfHMqdU6cCAj6U4rmQNZ6+oz1HkuPcq0wTD5c
kORGxWWXbDftdOi4sJjYzwTQSjj05JwYvlAh7nQrnHEM6n5Gw232ctfpfmrjBZ1x
N5wcT8zbFaWWSq4W6f62t/G1PvZLilmO0QuQAJAuhlyzmkGV6T92RYprSOgrPfxz
alGH0GZukWABKaacKhonh4R8uGtaWQ7Ri6iJhkDin2xKCPngmvRmNm7yJCi6z3Xt
eN9A0/2nKfjGJz+k0x1M5AyWIUsFV4ArgXQKKNZXRPjr5u1ICs9FgmEsN1T/q+68
RKNMzVYHrQIDAQABMA0GCSqGSIb3DQEBCwUAA4ICAQBLqXI1f6NboIwrXC6COwuo
+hMH6Gb9f37AbaVG6SAc0P3TQKL+lJHip3gmVzH2l9o6rSY+pXLbhCW1wnoYzy0E
DKoMXAfwcS3uEwbkpBfTGGtXVxChMThWJHvKsBoJlhd/6TY88qKwZFg5O8QltdN9
JEV/Ar5vkDGtQJIDfIS1OYsRwnKN1kLttYAfboeKrapMkcDb457A2K7iU1Cvc0YS
vEbDoWC0EWko2RavcoiqI2VsMn5NFBHhk9kJYxvx50soW7/CKcrXlL91i8X3pyCK
M4E9omV4g8iKE5+9JG/LR/d+0i1JEHl4TYYhIbMwx3L76A4nVPmaJYYJ16QruoC4
sCeXnYu24L5TpOmC+jcGRwShYQiwhbRxPEYR1ev6QEaNKmouLSWJMlaKQftxYdMm
lJWxM3jwjoIo20KfaqP3PnbNrCyjxNn4SGu63LciyembpUjeh6OCAHHVdcFnpetq
iViqGzJXI9UzJM1ScJF7d0WmxQ/8mWwJdT21ItUBjLrThtgPJroX2i3DK2kM+yUJ
8l+P4a61sssdj9pm9XFqggsd8ygOEyZs0Wt7ocS0wAs6JG5zqpWNxCo3ae+2+0dj
MjEK/sJBnsRR7Q8ikjXFjN7PjhV1UGs91/QN1ku5i+4okZCI45eiauZc2ixE4AeI
BNjgljN3+ntTEmW8ACaDSw==
-----END CERTIFICATE-----
