Certificate:
    Data:
        Version: 1 (0x0)
        Serial Number: 4097 (0x1001)
        Signature Algorithm: sha256WithRSAEncryption
        Issuer: CN=MyRootCA
        Validity
            Not Before: Nov 18 02:23:13 2025 GMT
            Not After : Nov 16 02:23:13 2035 GMT
        Subject: CN=client1
        Subject Public Key Info:
            Public Key Algorithm: rsaEncryption
                Public-Key: (2048 bit)
                Modulus:
                    00:dd:59:ee:98:09:8c:c4:eb:29:b4:6d:89:e2:e4:
                    a5:d6:e5:fd:e1:aa:58:f2:96:04:7b:de:12:b8:70:
                    17:d5:1c:8c:b0:9f:fe:9b:53:ed:1e:76:e4:80:c4:
                    68:04:42:54:1d:ba:49:c0:59:b0:d9:25:53:87:92:
                    28:da:52:19:9e:1d:1c:a7:ad:ff:19:21:d2:d0:20:
                    84:47:e7:c6:98:a1:4f:99:aa:89:c1:4a:ec:0c:6f:
                    6a:c2:b0:74:ff:f6:fa:e8:27:bc:ea:c9:f7:5d:53:
                    c1:fa:1f:81:e9:c2:d3:97:b3:cd:80:98:5d:f1:80:
                    66:55:78:5f:1b:90:f7:24:30:d6:88:af:8d:86:8c:
                    73:6c:6a:8a:b8:4f:e7:53:af:9a:74:98:a9:ab:62:
                    9f:e6:77:85:84:39:25:09:6e:6f:3f:3c:46:b3:c8:
                    be:3a:1d:39:da:e7:9c:13:3f:f1:10:d9:26:c9:11:
                    a6:cc:3a:2c:87:ee:28:7e:25:07:54:5e:be:a8:90:
                    0e:5b:20:bd:0d:cd:98:1e:16:5b:fe:aa:a2:10:81:
                    2e:ca:de:6f:a2:9e:48:60:77:90:64:d8:58:34:11:
                    a5:69:45:77:b8:1a:7e:10:e0:b8:b9:63:43:15:d7:
                    28:6b:45:71:ca:67:8f:b4:02:5b:53:21:26:0f:b9:
                    8c:b5
                Exponent: 65537 (0x10001)
    Signature Algorithm: sha256WithRSAEncryption
    Signature Value:
        83:0e:de:65:4c:30:3b:ef:26:81:2c:c3:a3:f6:87:8e:7d:6a:
        95:57:e5:10:7f:19:f7:c9:bb:6c:a0:8f:d5:a4:be:c7:c8:72:
        c1:85:d6:f6:3d:96:03:0d:10:94:5c:37:fa:b1:00:af:53:5d:
        4e:12:40:56:4c:53:5c:04:2f:d7:aa:c0:29:14:97:5d:08:b6:
        07:16:06:de:44:5e:27:03:06:ce:38:85:02:3a:87:9a:61:b2:
        1f:0c:8b:96:c9:fb:5e:6a:95:51:84:bc:9c:29:2b:d2:82:59:
        06:2f:34:44:ae:c2:2b:70:be:60:96:3a:ae:d6:ec:65:2a:91:
        8c:1b:18:d7:a5:f1:eb:d6:4c:07:31:e9:cf:f1:d8:36:83:be:
        a7:b4:35:bd:ae:65:2a:cf:06:a0:13:53:77:58:f3:c7:82:44:
        ba:42:a5:5e:8a:cd:89:b9:1a:c4:7d:57:c4:71:f1:2e:18:e0:
        54:ad:11:0e:56:3d:84:64:3a:2c:83:0c:9b:51:29:78:ec:18:
        a9:8f:50:3b:c4:ca:68:26:1f:00:32:4b:77:08:f1:ed:1e:f1:
        8b:de:15:24:d2:d7:4e:72:69:2a:7f:6e:eb:bc:50:35:93:75:
        ff:36:5c:38:af:b6:07:93:a3:01:60:ca:e2:25:0b:bd:26:96:
        27:11:8a:d0:5b:61:9a:9d:f6:d8:af:6d:1f:83:14:4a:56:b6:
        7b:f0:4e:61:13:74:f7:e7:0f:6d:82:07:ff:2d:d1:fc:3e:f8:
        a0:ee:44:3c:6d:79:49:c3:63:f2:8c:d9:57:98:3d:cf:d8:2f:
        d5:75:05:f4:f5:47:78:ca:7a:ea:d1:c0:48:59:35:90:8c:87:
        80:c2:2d:ca:c3:2f:35:62:96:fe:6e:d0:11:7a:50:1d:32:d7:
        76:7d:8a:ad:6b:ca:4b:d9:04:ea:9b:ce:1d:84:10:5c:13:f8:
        09:86:17:77:19:da:c7:47:00:db:c3:71:33:32:1b:5f:59:22:
        c3:9a:f1:a6:43:75:16:3f:13:fb:f7:2f:28:1d:aa:69:34:88:
        97:0f:5a:3d:4e:71:65:36:fd:6a:e8:f7:90:c9:c3:ba:85:f1:
        98:12:b7:0b:52:7a:21:38:c1:47:6c:ec:f9:2c:76:9f:78:92:
        ab:70:62:49:7e:e1:af:5d:d2:fb:b1:b5:ba:1d:88:c7:66:04:
        ad:62:cb:75:b8:4a:25:54:ed:31:87:b8:55:e2:c4:48:66:9f:
        0a:bd:66:31:37:bd:b7:c9:92:f3:d9:0e:7d:97:eb:f2:b2:43:
        2c:6d:45:40:00:b8:b8:6f:47:2f:50:13:23:ae:94:da:8b:c3:
        aa:d6:ba:26:5b:c0:5e:85
-----BEGIN CERTIFICATE-----
MIIDmjCCAYICAhABMA0GCSqGSIb3DQEBCwUAMBMxETAPBgNVBAMMCE15Um9vdENB
MB4XDTI1MTExODAyMjMxM1oXDTM1MTExNjAyMjMxM1owEjEQMA4GA1UEAwwHY2xp
ZW50MTCCASIwDQYJKoZIhvcNAQEBBQADggEPADCCAQoCggEBAN1Z7pgJjMTrKbRt
ieLkpdbl/eGqWPKWBHveErhwF9UcjLCf/ptT7R525IDEaARCVB26ScBZsNklU4eS
KNpSGZ4dHKet/xkh0tAghEfnxpihT5mqicFK7AxvasKwdP/2+ugnvOrJ911Twfof
genC05ezzYCYXfGAZlV4XxuQ9yQw1oivjYaMc2xqirhP51OvmnSYqatin+Z3hYQ5
JQlubz88RrPIvjodOdrnnBM/8RDZJskRpsw6LIfuKH4lB1RevqiQDlsgvQ3NmB4W
W/6qohCBLsreb6KeSGB3kGTYWDQRpWlFd7gafhDguLljQxXXKGtFccpnj7QCW1Mh
Jg+5jLUCAwEAATANBgkqhkiG9w0BAQsFAAOCAgEAgw7eZUwwO+8mgSzDo/aHjn1q
lVflEH8Z98m7bKCP1aS+x8hywYXW9j2WAw0QlFw3+rEAr1NdThJAVkxTXAQv16rA
KRSXXQi2BxYG3kReJwMGzjiFAjqHmmGyHwyLlsn7XmqVUYS8nCkr0oJZBi80RK7C
K3C+YJY6rtbsZSqRjBsY16Xx69ZMBzHpz/HYNoO+p7Q1va5lKs8GoBNTd1jzx4JE
ukKlXorNibkaxH1XxHHxLhjgVK0RDlY9hGQ6LIMMm1EpeOwYqY9QO8TKaCYfADJL
dwjx7R7xi94VJNLXTnJpKn9u67xQNZN1/zZcOK+2B5OjAWDK4iULvSaWJxGK0Fth
mp322K9tH4MUSla2e/BOYRN09+cPbYIH/y3R/D74oO5EPG15ScNj8ozZV5g9z9gv
1XUF9PVHeMp66tHASFk1kIyHgMItysMvNWKW/m7QEXpQHTLXdn2KrWvKS9kE6pvO
HYQQXBP4CYYXdxnax0cA28NxMzIbX1kiw5rxpkN1Fj8T+/cvKB2qaTSIlw9aPU5x
ZTb9auj3kMnDuoXxmBK3C1J6ITjBR2zs+Sx2n3iSq3BiSX7hr13S+7G1uh2Ix2YE
rWLLdbhKJVTtMYe4VeLESGafCr1mMTe9t8mS89kOfZfr8rJDLG1FQAC4uG9HL1AT
I66U2ovDqta6JlvAXoU=
-----END CERTIFICATE-----
