Certificate:
    Data:
        Version: 3 (0x2)
        Serial Number: 8192 (0x2000)
        Signature Algorithm: sha256WithRSAEncryption
        Issuer: CN=MyIssuingCA
        Validity
            Not Before: Nov 24 14:28:37 2025 GMT
            Not After : Feb 27 14:28:37 2028 GMT
        Subject: CN=localhost
        Subject Public Key Info:
            Public Key Algorithm: rsaEncryption
                Public-Key: (2048 bit)
                Modulus:
                    00:c5:3e:5a:86:f8:c7:20:fa:19:af:d8:6f:f3:e0:
                    72:d4:26:5f:00:35:eb:9e:ab:37:b9:d0:4e:67:f8:
                    cb:fc:da:c4:a3:24:d5:13:3a:01:0a:0f:3f:b5:a9:
                    2d:82:d3:fa:1e:f3:64:22:ec:6b:38:d7:95:28:e1:
                    8b:b4:dc:59:9b:a5:22:aa:0b:57:7d:bd:55:a5:e6:
                    b8:f5:f4:1c:c4:43:20:79:bf:85:23:26:20:b7:33:
                    1a:be:8d:32:de:60:a4:c7:2e:16:b7:62:3e:1e:86:
                    64:63:83:bd:1e:a8:54:9f:fe:18:1b:10:d8:8a:77:
                    c0:97:9a:cb:11:72:d5:30:2b:96:46:4f:90:66:d0:
                    2e:6e:b9:dc:bd:e7:c9:ac:14:05:40:39:75:9f:1d:
                    27:55:3b:f8:07:e2:d6:71:1d:b7:f2:c7:02:01:51:
                    eb:a0:18:0f:44:ef:76:87:04:bf:d6:05:00:87:e8:
                    6a:04:41:f5:e2:2a:55:10:22:c3:c1:62:2a:aa:20:
                    5d:e2:96:a2:8a:1d:94:23:19:9f:87:bb:5c:73:a4:
                    ea:ff:ee:14:4c:5f:de:4e:54:87:34:98:2e:09:63:
                    a4:76:2d:f9:9c:8b:59:c2:29:7b:eb:64:84:c7:f7:
                    02:48:3b:77:4b:1f:68:a0:8a:91:38:0d:f2:79:fc:
                    e9:85
                Exponent: 65537 (0x10001)
        X509v3 extensions:
            X509v3 Basic Constraints: 
                CA:FALSE
            X509v3 Key Usage: 
                Digital Signature, Key Encipherment
            X509v3 Extended Key Usage: 
                TLS Web Server Authentication, TLS Web Client Authentication
            X509v3 Subject Key Identifier: 
                40:F8:1C:33:0C:4D:2B:22:C7:90:21:DB:0E:F3:1E:64:82:2F:98:FF
            X509v3 Authority Key Identifier: 
                7E:68:7E:C0:3C:F0:E7:07:41:AE:F4:EA:70:8C:47:BE:93:47:D1:18
    Signature Algorithm: sha256WithRSAEncryption
    Signature Value:
        4b:c6:71:ac:f5:0a:01:28:eb:7d:2c:21:45:c0:25:4d:1b:15:
        db:74:78:f7:00:64:ae:4e:d6:47:f0:44:c9:dc:32:77:4c:53:
        65:91:ea:8f:73:c5:5e:50:6b:91:fb:24:bd:7e:12:01:07:9b:
        49:c9:5e:8c:0d:b6:4e:e5:ac:df:f9:9c:83:6b:2e:a3:32:df:
        37:9e:9b:e0:70:61:69:dd:ce:15:66:8d:05:9a:19:5c:8e:fd:
        27:f7:cb:88:81:bb:5e:0a:ba:28:f9:35:51:f3:9b:6f:92:6f:
        f5:8d:4d:bc:e7:2d:40:c7:ff:9e:7a:95:69:f9:c3:49:81:61:
        c7:31:51:2a:4c:ea:75:57:2c:5c:34:0c:2a:2e:c5:73:b8:9a:
        70:da:bd:38:88:15:92:71:4e:90:ab:ef:20:24:20:09:06:5e:
        c3:a6:62:57:03:08:77:7a:be:02:4c:fe:f3:5d:32:e4:79:ea:
        ce:44:63:f9:bd:21:eb:48:4e:52:f6:53:45:d3:56:fa:07:7f:
        c2:16:3a:f5:1d:90:40:19:48:6d:ea:c1:50:f1:e4:f3:bb:c7:
        47:4f:ce:28:7f:83:33:47:fa:29:8a:12:95:db:79:ff:65:4d:
        86:4d:19:35:2f:91:44:2a:52:a7:80:5a:46:4b:d3:bb:63:84:
        0e:96:33:0f:9c:c9:2a:d7:34:bb:10:e1:e4:f9:32:52:1e:47:
        1c:77:d3:d1:50:c0:79:cc:f6:2c:81:ec:f6:d3:6a:86:76:73:
        4f:77:83:6f:22:4a:3b:04:eb:66:d0:75:f1:3d:84:64:37:31:
        6e:e1:d2:43:96:db:e3:50:dc:68:39:de:b0:8a:ff:c4:ad:de:
        ed:66:8d:75:68:80:ff:a8:62:5c:d1:d8:4e:10:31:cc:f1:f1:
        d8:79:b1:fd:63:40:62:ad:ac:03:df:45:5b:09:3b:ea:ac:d1:
        65:4c:11:0c:e3:18:b3:a7:a9:bf:c6:93:5a:16:3b:68:cb:68:
        40:0f:2c:fd:91:e5:5f:9a:de:37:65:b8:d5:a2:e8:e2:6b:80:
        c5:92:08:8e:16:84:54:4e:58:ee:eb:e5:94:98:72:40:a8:ae:
        04:04:dd:97:4a:40:25:e4:e1:16:20:ad:96:1a:38:91:a4:fc:
        37:3e:8d:34:c8:38:c0:7c:cc:16:cb:a0:99:7a:6a:54:2a:d0:
        ff:28:a6:89:b1:2a:8c:cd:c0:1d:40:15:fa:fc:c0:2f:70:eb:
        59:3d:ef:63:4f:cb:73:bb:0f:74:f9:a4:77:14:dd:f7:b8:10:
        2b:66:d0:1e:0a:6d:51:6f:0d:57:e6:5c:54:a6:c1:3e:3e:8c:
        9d:de:21:c6:1d:aa:f3:c1
-----BEGIN CERTIFICATE-----
MIIEHzCCAgegAwIBAgICIAAwDQYJKoZIhvcNAQELBQAwFjEUMBIGA1UEAwwLTXlJ
c3N1aW5nQ0EwHhcNMjUxMTI0MTQyODM3WhcNMjgwMjI3MTQyODM3WjAUMRIwEAYD
VQQDDAlsb2NhbGhvc3QwggEiMA0GCSqGSIb3DQEBAQUAA4IBDwAwggEKAoIBAQDF
PlqG+Mcg+hmv2G/z4HLUJl8ANeueqze50E5n+Mv82sSjJNUTOgEKDz+1qS2C0/oe
82Qi7Gs415Uo4Yu03FmbpSKqC1d9vVWl5rj19BzEQyB5v4UjJiC3Mxq+jTLeYKTH
Lha3Yj4ehmRjg70eqFSf/hgbENiKd8CXmssRctUwK5ZGT5Bm0C5uudy958msFAVA
OXWfHSdVO/gH4tZxHbfyxwIBUeugGA9E73aHBL/WBQCH6GoEQfXiKlUQIsPBYiqq
IF3ilqKKHZQjGZ+Hu1xzpOr/7hRMX95OVIc0mC4JY6R2Lfmci1nCKXvrZITH9wJI
O3dLH2igipE4DfJ5/OmFAgMBAAGjeTB3MAkGA1UdEwQCMAAwCwYDVR0PBAQDAgWg
MB0GA1UdJQQWMBQGCCsGAQUFBwMBBggrBgEFBQcDAjAdBgNVHQ4EFgQUQPgcMwxN
KyLHkCHbDvMeZIIvmP8wHwYDVR0jBBgwFoAUfmh+wDzw5wdBrvTqcIxHvpNH0Rgw
DQYJKoZIhvcNAQELBQADggIBAEvGcaz1CgEo630sIUXAJU0bFdt0ePcAZK5O1kfw
RMncMndMU2WR6o9zxV5Qa5H7JL1+EgEHm0nJXowNtk7lrN/5nINrLqMy3zeem+Bw
YWndzhVmjQWaGVyO/Sf3y4iBu14Kuij5NVHzm2+Sb/WNTbznLUDH/556lWn5w0mB
YccxUSpM6nVXLFw0DCouxXO4mnDavTiIFZJxTpCr7yAkIAkGXsOmYlcDCHd6vgJM
/vNdMuR56s5EY/m9IetITlL2U0XTVvoHf8IWOvUdkEAZSG3qwVDx5PO7x0dPzih/
gzNH+imKEpXbef9lTYZNGTUvkUQqUqeAWkZL07tjhA6WMw+cySrXNLsQ4eT5MlIe
Rxx309FQwHnM9iyB7PbTaoZ2c093g28iSjsE62bQdfE9hGQ3MW7h0kOW2+NQ3Gg5
3rCK/8St3u1mjXVogP+oYlzR2E4QMczx8dh5sf1jQGKtrAPfRVsJO+qs0WVMEQzj
GLOnqb/Gk1oWO2jLaEAPLP2R5V+a3jdluNWi6OJrgMWSCI4WhFROWO7r5ZSYckCo
rgQE3ZdKQCXk4RYgrZYaOJGk/Dc+jTTIOMB8zBbLoJl6alQq0P8opomxKozNwB1A
Ffr8wC9w61k972NPy3O7D3T5pHcU3fe4ECtm0B4KbVFvDVfmXFSmwT4+jJ3eIcYd
qvPB
-----END CERTIFICATE-----
