Certificate:
    Data:
        Version: 3 (0x2)
        Serial Number: 8193 (0x2001)
        Signature Algorithm: sha256WithRSAEncryption
        Issuer: CN=MyIssuingCA
        Validity
            Not Before: Nov 24 14:30:30 2025 GMT
            Not After : Feb 27 14:30:30 2028 GMT
        Subject: CN=client1
        Subject Public Key Info:
            Public Key Algorithm: rsaEncryption
                Public-Key: (2048 bit)
                Modulus:
                    00:9c:d8:cd:4d:7c:6f:ba:ee:01:7e:d0:84:94:3e:
                    33:4c:88:e0:7a:e8:96:07:ff:65:ce:da:0c:d7:41:
                    82:12:21:cb:66:bd:b5:ca:85:7d:6d:e4:cc:10:e6:
                    c6:81:23:5f:02:a2:61:6c:8d:4b:68:a3:9a:46:a9:
                    0b:89:47:80:ce:90:10:ed:bb:4f:fc:82:c0:df:65:
                    8c:81:7f:84:df:cb:9b:be:e9:98:e1:a1:f2:73:4d:
                    5b:aa:9b:e8:33:29:aa:a0:3f:0c:a6:bc:01:57:9e:
                    b2:40:9b:8e:bb:25:d6:6f:44:43:c4:5e:18:9e:13:
                    39:bd:cb:dc:25:df:bb:e3:3c:fa:cf:e4:4d:88:41:
                    19:87:b5:ca:15:16:f7:72:dd:38:c6:28:51:6c:f6:
                    36:10:34:ca:27:50:06:fa:f6:52:90:1a:0c:37:6e:
                    57:12:f4:9b:e8:96:cf:9a:8e:e6:b5:07:fc:dc:91:
                    da:dc:c4:4d:90:17:b4:38:58:a2:59:4d:51:10:41:
                    1d:a1:b9:53:87:60:48:04:8b:d1:0c:6b:62:8f:ae:
                    81:ad:c0:86:c3:82:bb:ad:ed:7d:8e:de:80:7b:45:
                    b4:86:c1:da:8b:08:48:94:80:73:2d:66:5e:a8:89:
                    1d:d9:4a:e1:dc:38:4d:ec:3a:41:1a:83:51:49:57:
                    81:c1
                Exponent: 65537 (0x10001)
        X509v3 extensions:
            X509v3 Basic Constraints: 
                CA:FALSE
            X509v3 Key Usage: 
                Digital Signature, Key Encipherment
            X509v3 Extended Key Usage: 
                TLS Web Server Authentication, TLS Web Client Authentication
            X509v3 Subject Key Identifier: 
                82:7B:15:60:71:FD:E2:C8:3C:01:CD:DC:3C:E6:86:FB:03:3D:71:D3
            X509v3 Authority Key Identifier: 
                7E:68:7E:C0:3C:F0:E7:07:41:AE:F4:EA:70:8C:47:BE:93:47:D1:18
    Signature Algorithm: sha256WithRSAEncryption
    Signature Value:
        64:2b:ce:dc:98:20:3b:ae:3e:35:1f:f9:62:4b:f6:23:2d:d6:
        75:68:19:30:5c:b0:8d:76:ec:6e:24:7c:b0:0a:78:01:28:b5:
        90:f3:0a:5c:19:ab:3f:5e:10:cf:44:5d:bb:87:0b:d6:87:23:
        a2:b6:ab:b3:d1:58:03:75:2b:f4:e8:0f:1d:cd:fc:63:d4:6b:
        65:e0:55:ad:8e:96:c9:d7:53:b5:df:4d:f7:86:d5:58:a6:f1:
        31:e6:39:79:af:76:0f:8c:e0:4f:f1:42:3d:c1:93:2f:29:9c:
        e4:56:c5:17:91:77:ef:9f:04:48:99:db:cc:dd:bb:0e:ed:85:
        67:76:7a:4f:d9:9b:bc:a0:19:cd:bb:ba:33:26:28:68:77:9c:
        23:31:0e:c0:35:39:d8:bf:46:b2:0a:88:e7:b9:8a:38:11:22:
        36:e0:79:39:7e:0c:87:d1:37:71:60:aa:e0:81:38:90:36:17:
        35:15:1f:1d:1f:cf:fd:f5:23:c4:ab:7b:c0:a6:18:92:21:57:
        91:c3:b9:ce:ff:92:37:86:e0:00:6d:50:e9:d5:80:4f:9a:a4:
        6e:bb:87:af:eb:42:40:eb:22:b3:bc:e5:fd:b4:43:b2:07:fc:
        df:9e:ef:56:17:52:e8:c7:ec:9f:3d:6c:65:5a:a4:c8:c2:dd:
        4d:ed:ea:83:b7:69:02:04:46:f5:11:18:c9:d8:ba:75:42:42:
        5a:23:45:30:b4:9a:66:d5:cc:cd:f1:0e:1a:20:d5:03:69:fd:
        4f:4d:2a:f7:ce:05:6f:e2:73:28:81:9e:48:bf:8e:4e:46:0d:
        42:50:83:19:64:1f:bf:8b:42:dd:77:ae:20:cd:07:14:26:7c:
        52:11:ff:b8:ef:e1:4e:3e:ca:0f:72:bb:03:70:2b:c4:1a:13:
        2b:97:1b:59:3c:b7:ef:2e:d2:f2:ba:5a:3e:ad:a3:72:ec:17:
        cc:ca:74:a2:ad:cf:35:8c:89:c6:64:c2:e1:9c:14:46:42:3d:
        1e:22:dc:04:ba:63:06:6c:da:c6:b7:ba:a5:41:3d:00:aa:4f:
        33:4d:c4:0f:0d:ba:2c:fc:1f:c6:b2:5d:7d:6e:52:69:6e:a6:
        7a:b8:2d:41:a5:53:33:05:5e:be:e1:b8:55:7b:0f:63:92:74:
        5b:42:c9:16:66:4a:30:51:b7:4b:34:fa:19:6b:d5:29:bc:d7:
        d1:3d:c9:9c:ab:c9:3a:70:a3:4c:8f:ff:9a:78:99:69:70:23:
        90:e7:da:23:33:4b:56:7f:f5:84:5f:61:b3:11:02:66:eb:8a:
        3c:fe:58:20:fd:6c:19:4f:63:09:90:26:9d:f4:eb:9e:d4:cb:
        45:c4:87:22:bc:70:25:27
-----BEGIN CERTIFICATE-----
MIIEHTCCAgWgAwIBAgICIAEwDQYJKoZIhvcNAQELBQAwFjEUMBIGA1UEAwwLTXlJ
c3N1aW5nQ0EwHhcNMjUxMTI0MTQzMDMwWhcNMjgwMjI3MTQzMDMwWjASMRAwDgYD
VQQDDAdjbGllbnQxMIIBIjANBgkqhkiG9w0BAQEFAAOCAQ8AMIIBCgKCAQEAnNjN
TXxvuu4BftCElD4zTIjgeuiWB/9lztoM10GCEiHLZr21yoV9beTMEObGgSNfAqJh
bI1LaKOaRqkLiUeAzpAQ7btP/ILA32WMgX+E38ubvumY4aHyc01bqpvoMymqoD8M
prwBV56yQJuOuyXWb0RDxF4YnhM5vcvcJd+74zz6z+RNiEEZh7XKFRb3ct04xihR
bPY2EDTKJ1AG+vZSkBoMN25XEvSb6JbPmo7mtQf83JHa3MRNkBe0OFiiWU1REEEd
oblTh2BIBIvRDGtij66BrcCGw4K7re19jt6Ae0W0hsHaiwhIlIBzLWZeqIkd2Urh
3DhN7DpBGoNRSVeBwQIDAQABo3kwdzAJBgNVHRMEAjAAMAsGA1UdDwQEAwIFoDAd
BgNVHSUEFjAUBggrBgEFBQcDAQYIKwYBBQUHAwIwHQYDVR0OBBYEFIJ7FWBx/eLI
PAHN3DzmhvsDPXHTMB8GA1UdIwQYMBaAFH5ofsA88OcHQa706nCMR76TR9EYMA0G
CSqGSIb3DQEBCwUAA4ICAQBkK87cmCA7rj41H/liS/YjLdZ1aBkwXLCNduxuJHyw
CngBKLWQ8wpcGas/XhDPRF27hwvWhyOitquz0VgDdSv06A8dzfxj1Gtl4FWtjpbJ
11O13033htVYpvEx5jl5r3YPjOBP8UI9wZMvKZzkVsUXkXfvnwRImdvM3bsO7YVn
dnpP2Zu8oBnNu7ozJihod5wjMQ7ANTnYv0ayCojnuYo4ESI24Hk5fgyH0TdxYKrg
gTiQNhc1FR8dH8/99SPEq3vAphiSIVeRw7nO/5I3huAAbVDp1YBPmqRuu4ev60JA
6yKzvOX9tEOyB/zfnu9WF1Lox+yfPWxlWqTIwt1N7eqDt2kCBEb1ERjJ2Lp1QkJa
I0UwtJpm1czN8Q4aINUDaf1PTSr3zgVv4nMogZ5Iv45ORg1CUIMZZB+/i0Ldd64g
zQcUJnxSEf+47+FOPsoPcrsDcCvEGhMrlxtZPLfvLtLyulo+raNy7BfMynSirc81
jInGZMLhnBRGQj0eItwEumMGbNrGt7qlQT0Aqk8zTcQPDbos/B/Gsl19blJpbqZ6
uC1BpVMzBV6+4bhVew9jknRbQskWZkowUbdLNPoZa9UpvNfRPcmcq8k6cKNMj/+a
eJlpcCOQ59ojM0tWf/WEX2GzEQJm64o8/lgg/WwZT2MJkCad9Oue1MtFxIcivHAl
Jw==
-----END CERTIFICATE-----
